target datalayout = "e-m:e-p270:32:32-p271:32:32-p272:64:64-i64:64-i128:128-f80:128-n8:16:32:64-S128"
target triple = "x86_64-pc-linux-gnu"

%struct.PLATFORM_hid_device_ = type { i32, i32, i32, ptr, ptr }

@.str.12 = private unnamed_addr constant [21 x i8] c"ioctl (GFEATURE): %s\00", align 1
@.str.31 = private unnamed_addr constant [3 x i8] c"%s\00", align 1

; Function Attrs: nounwind uwtable
define internal void @register_error_str(ptr noundef %0, ptr noundef %1) #0 {
  %3 = alloca ptr, align 8
  %4 = alloca ptr, align 8
  store ptr %0, ptr %3, align 8
  store ptr %1, ptr %4, align 8
  %5 = load ptr, ptr %3, align 8
  %6 = load ptr, ptr %5, align 8
  call void @free(ptr noundef %6) #10
  %7 = load ptr, ptr %4, align 8
  %8 = icmp ne ptr %7, null
  br i1 %8, label %9, label %12

9:                                                ; preds = %2
  %10 = load ptr, ptr %4, align 8
  %11 = call zeroext i1 (ptr, ...) @SDL_SetError_REAL(ptr noundef @.str.31, ptr noundef %10)
  br label %14

12:                                               ; preds = %2
  %13 = call zeroext i1 @SDL_ClearError_REAL()
  br label %14

14:                                               ; preds = %12, %9
  ret void
}

; Function Attrs: nounwind uwtable
define internal void @register_device_error(ptr noundef %0, ptr noundef %1) #0 {
  %3 = alloca ptr, align 8
  %4 = alloca ptr, align 8
  store ptr %0, ptr %3, align 8
  store ptr %1, ptr %4, align 8
  %5 = load ptr, ptr %3, align 8
  %6 = getelementptr inbounds nuw %struct.PLATFORM_hid_device_, ptr %5, i32 0, i32 3
  %7 = load ptr, ptr %4, align 8
  call void @register_error_str(ptr noundef %6, ptr noundef %7)
  ret void
}

; Function Attrs: nounwind uwtable
define hidden i32 @PLATFORM_hid_get_feature_report(ptr noundef %0, ptr noundef %1, i64 noundef %2) #0 {
  %4 = alloca ptr, align 8
  %5 = alloca ptr, align 8
  %6 = alloca i64, align 8
  %7 = alloca i32, align 4
  %8 = alloca i8, align 1
  store ptr %0, ptr %4, align 8
  store ptr %1, ptr %5, align 8
  store i64 %2, ptr %6, align 8
  call void @llvm.lifetime.start.p0(i64 4, ptr %7) #10
  call void @llvm.lifetime.start.p0(i64 1, ptr %8) #10
  %9 = load ptr, ptr %5, align 8
  %10 = getelementptr inbounds i8, ptr %9, i64 0
  %11 = load i8, ptr %10, align 1
  store i8 %11, ptr %8, align 1
  %12 = load ptr, ptr %4, align 8
  call void @register_device_error(ptr noundef %12, ptr noundef null)
  %13 = load ptr, ptr %4, align 8
  %14 = getelementptr inbounds nuw %struct.PLATFORM_hid_device_, ptr %13, i32 0, i32 0
  %15 = load i32, ptr %14, align 8
  %16 = load i64, ptr %6, align 8
  %17 = shl i64 %16, 16
  %18 = or i64 3221243911, %17
  %19 = load ptr, ptr %5, align 8
  %20 = call i32 (i32, i64, ...) @ioctl(i32 noundef %15, i64 noundef %18, ptr noundef %19) #10
  store i32 %20, ptr %7, align 4
  %21 = load i32, ptr %7, align 4
  %22 = icmp slt i32 %21, 0
  br i1 %22, label %23, label %28

23:                                               ; preds = %3
  %24 = load ptr, ptr %4, align 8
  %25 = call ptr @__errno_location() #13
  %26 = load i32, ptr %25, align 4
  %27 = call ptr @strerror(i32 noundef %26) #10
  call void (ptr, ptr, ...) @register_device_error_format(ptr noundef %24, ptr noundef @.str.12, ptr noundef %27)
  br label %79

28:                                               ; preds = %3
  %29 = load ptr, ptr %4, align 8
  %30 = getelementptr inbounds nuw %struct.PLATFORM_hid_device_, ptr %29, i32 0, i32 2
  %31 = load i32, ptr %30, align 8
  %32 = icmp ne i32 %31, 0
  br i1 %32, label %33, label %78

33:                                               ; preds = %28
  %34 = load ptr, ptr %5, align 8
  %35 = getelementptr inbounds i8, ptr %34, i64 0
  %36 = load i8, ptr %35, align 1
  %37 = zext i8 %36 to i32
  %38 = load i8, ptr %8, align 1
  %39 = zext i8 %38 to i32
  %40 = icmp eq i32 %37, %39
  br i1 %40, label %41, label %56

41:                                               ; preds = %33
  %42 = load ptr, ptr %5, align 8
  %43 = getelementptr inbounds i8, ptr %42, i64 1
  %44 = load i8, ptr %43, align 1
  %45 = zext i8 %44 to i32
  %46 = load i8, ptr %8, align 1
  %47 = zext i8 %46 to i32
  %48 = icmp eq i32 %45, %47
  br i1 %48, label %49, label %56

49:                                               ; preds = %41
  %50 = load ptr, ptr %5, align 8
  %51 = getelementptr inbounds i8, ptr %50, i64 0
  %52 = load ptr, ptr %5, align 8
  %53 = getelementptr inbounds i8, ptr %52, i64 1
  %54 = load i32, ptr %7, align 4
  %55 = sext i32 %54 to i64
  call void @llvm.memmove.p0.p0.i64(ptr align 1 %51, ptr align 1 %53, i64 %55, i1 false)
  br label %77

56:                                               ; preds = %41, %33
  %57 = load ptr, ptr %5, align 8
  %58 = getelementptr inbounds i8, ptr %57, i64 0
  %59 = load i8, ptr %58, align 1
  %60 = zext i8 %59 to i32
  %61 = load i8, ptr %8, align 1
  %62 = zext i8 %61 to i32
  %63 = icmp ne i32 %60, %62
  br i1 %63, label %64, label %76

64:                                               ; preds = %56
  %65 = load ptr, ptr %5, align 8
  %66 = getelementptr inbounds i8, ptr %65, i64 1
  %67 = load ptr, ptr %5, align 8
  %68 = getelementptr inbounds i8, ptr %67, i64 0
  %69 = load i32, ptr %7, align 4
  %70 = sext i32 %69 to i64
  call void @llvm.memmove.p0.p0.i64(ptr align 1 %66, ptr align 1 %68, i64 %70, i1 false)
  %71 = load i8, ptr %8, align 1
  %72 = load ptr, ptr %5, align 8
  %73 = getelementptr inbounds i8, ptr %72, i64 0
  store i8 %71, ptr %73, align 1
  %74 = load i32, ptr %7, align 4
  %75 = add nsw i32 %74, 1
  store i32 %75, ptr %7, align 4
  br label %76

76:                                               ; preds = %64, %56
  br label %77

77:                                               ; preds = %76, %49
  br label %78

78:                                               ; preds = %77, %28
  br label %79

79:                                               ; preds = %78, %23
  %80 = load i32, ptr %7, align 4
  call void @llvm.lifetime.end.p0(i64 1, ptr %8) #10
  call void @llvm.lifetime.end.p0(i64 4, ptr %7) #10
  ret i32 %80
}