; Function Attrs: nounwind uwtable
define hidden i32 @PLATFORM_hid_get_feature_report(ptr noundef readonly captures(none) %0, ptr noundef %1, i64 noundef %2) #1 {
  %4 = load i8, ptr %1, align 1
  %5 = getelementptr i8, ptr %0, i64 16
  %.val = load ptr, ptr %5, align 8
  tail call void @free(ptr noundef %.val) #22
  %6 = tail call zeroext i1 @SDL_ClearError_REAL() #22
  %7 = load i32, ptr %0, align 8
  %8 = shl i64 %2, 16
  %9 = or i64 %8, 3221243911
  %10 = tail call i32 (i32, i64, ...) @ioctl(i32 noundef %7, i64 noundef %9, ptr noundef nonnull %1) #22
  %11 = icmp slt i32 %10, 0
  br i1 %11, label %12, label %16

12:                                               ; preds = %3
  %13 = tail call ptr @__errno_location() #25
  %14 = load i32, ptr %13, align 4
  %15 = tail call ptr @strerror(i32 noundef %14) #22
  tail call void (ptr, ptr, ...) @register_device_error_format(ptr noundef nonnull %0, ptr noundef nonnull @.str.12, ptr noundef %15)
  br label %.thread

16:                                               ; preds = %3
  %17 = getelementptr inbounds nuw i8, ptr %0, i64 8
  %18 = load i32, ptr %17, align 8
  %.not = icmp eq i32 %18, 0
  br i1 %.not, label %.thread, label %19

19:                                               ; preds = %16
  %20 = load i8, ptr %1, align 1
  %21 = icmp eq i8 %20, %4
  %22 = getelementptr inbounds nuw i8, ptr %1, i64 1
  br i1 %21, label %23, label %28

23:                                               ; preds = %19
  %24 = load i8, ptr %22, align 1
  %25 = icmp eq i8 %24, %4
  br i1 %25, label %26, label %.thread

26:                                               ; preds = %23
  %27 = zext nneg i32 %10 to i64
  tail call void @llvm.memmove.p0.p0.i64(ptr nonnull align 1 %1, ptr nonnull align 1 %22, i64 %27, i1 false)
  br label %.thread

28:                                               ; preds = %19
  %29 = zext nneg i32 %10 to i64
  tail call void @llvm.memmove.p0.p0.i64(ptr nonnull align 1 %22, ptr nonnull align 1 %1, i64 %29, i1 false)
  store i8 %4, ptr %1, align 1
  %30 = add nuw nsw i32 %10, 1
  br label %.thread

.thread:                                          ; preds = %23, %16, %28, %26, %12
  %.0 = phi i32 [ %10, %12 ], [ %10, %26 ], [ %30, %28 ], [ %10, %16 ], [ %10, %23 ]
  ret i32 %.0
}